target datalayout = "e-m:e-p270:32:32-p271:32:32-p272:64:64-i64:64-i128:128-f80:128-n8:16:32:64-S128"
target triple = "x86_64-pc-linux-gnu"

%struct.state = type { i32, i32, i32, i32, i8, i8, [2000 x i64], [2000 x i8], [256 x %struct.ttinfo], [512 x i8], [50 x %struct.lsinfo], i32 }
%struct.ttinfo = type { i32, i8, i32, i8, i8 }
%struct.lsinfo = type { i64, i64 }
%struct.pg_tz = type { [256 x i8], %struct.state }

; Function Attrs: nounwind uwtable
define dso_local ptr @pg_get_next_timezone_abbrev(ptr noundef %0, ptr noundef %1) #0 {
  %3 = alloca ptr, align 8
  %4 = alloca ptr, align 8
  %5 = alloca ptr, align 8
  %6 = alloca ptr, align 8
  %7 = alloca ptr, align 8
  %8 = alloca ptr, align 8
  %9 = alloca i32, align 4
  %10 = alloca i32, align 4
  store ptr %0, ptr %4, align 8
  store ptr %1, ptr %5, align 8
  call void @llvm.lifetime.start.p0(i64 8, ptr %6) #8
  call void @llvm.lifetime.start.p0(i64 8, ptr %7) #8
  %11 = load ptr, ptr %5, align 8
  %12 = getelementptr inbounds nuw %struct.pg_tz, ptr %11, i32 0, i32 1
  store ptr %12, ptr %7, align 8
  call void @llvm.lifetime.start.p0(i64 8, ptr %8) #8
  call void @llvm.lifetime.start.p0(i64 4, ptr %9) #8
  %13 = load ptr, ptr %7, align 8
  %14 = getelementptr inbounds nuw %struct.state, ptr %13, i32 0, i32 9
  %15 = getelementptr inbounds [512 x i8], ptr %14, i64 0, i64 0
  store ptr %15, ptr %8, align 8
  %16 = load ptr, ptr %4, align 8
  %17 = load i32, ptr %16, align 4
  store i32 %17, ptr %9, align 4
  %18 = load i32, ptr %9, align 4
  %19 = icmp slt i32 %18, 0
  br i1 %19, label %26, label %20

20:                                               ; preds = %2
  %21 = load i32, ptr %9, align 4
  %22 = load ptr, ptr %7, align 8
  %23 = getelementptr inbounds nuw %struct.state, ptr %22, i32 0, i32 3
  %24 = load i32, ptr %23, align 4
  %25 = icmp sge i32 %21, %24
  br i1 %25, label %26, label %27

26:                                               ; preds = %20, %2
  store ptr null, ptr %3, align 8
  store i32 1, ptr %10, align 4
  br label %49

27:                                               ; preds = %20
  %28 = load ptr, ptr %8, align 8
  %29 = load i32, ptr %9, align 4
  %30 = sext i32 %29 to i64
  %31 = getelementptr inbounds i8, ptr %28, i64 %30
  store ptr %31, ptr %6, align 8
  br label %32

32:                                               ; preds = %40, %27
  %33 = load ptr, ptr %8, align 8
  %34 = load i32, ptr %9, align 4
  %35 = sext i32 %34 to i64
  %36 = getelementptr inbounds i8, ptr %33, i64 %35
  %37 = load i8, ptr %36, align 1
  %38 = sext i8 %37 to i32
  %39 = icmp ne i32 %38, 0
  br i1 %39, label %40, label %43

40:                                               ; preds = %32
  %41 = load i32, ptr %9, align 4
  %42 = add i32 %41, 1
  store i32 %42, ptr %9, align 4
  br label %32, !llvm.loop !45

43:                                               ; preds = %32
  %44 = load i32, ptr %9, align 4
  %45 = add i32 %44, 1
  store i32 %45, ptr %9, align 4
  %46 = load i32, ptr %9, align 4
  %47 = load ptr, ptr %4, align 8
  store i32 %46, ptr %47, align 4
  %48 = load ptr, ptr %6, align 8
  store ptr %48, ptr %3, align 8
  store i32 1, ptr %10, align 4
  br label %49

49:                                               ; preds = %43, %26
  call void @llvm.lifetime.end.p0(i64 4, ptr %9) #8
  call void @llvm.lifetime.end.p0(i64 8, ptr %8) #8
  call void @llvm.lifetime.end.p0(i64 8, ptr %7) #8
  call void @llvm.lifetime.end.p0(i64 8, ptr %6) #8
  %50 = load ptr, ptr %3, align 8
  ret ptr %50
}