; Function Attrs: nofree norecurse nosync nounwind memory(argmem: readwrite) uwtable
define dso_local ptr @pg_get_next_timezone_abbrev(ptr noundef captures(none) %0, ptr noundef readonly captures(ret: address, provenance) %1) local_unnamed_addr #7 {
  %3 = getelementptr inbounds nuw i8, ptr %1, i64 22376
  %4 = load i32, ptr %0, align 4
  %5 = icmp slt i32 %4, 0
  br i1 %5, label %18, label %6

6:                                                ; preds = %2
  %7 = getelementptr inbounds nuw i8, ptr %1, i64 268
  %8 = load i32, ptr %7, align 4
  %.not = icmp slt i32 %4, %8
  br i1 %.not, label %9, label %18

9:                                                ; preds = %6
  %10 = zext nneg i32 %4 to i64
  br label %11

11:                                               ; preds = %11, %9
  %.0 = phi i32 [ %4, %9 ], [ %15, %11 ]
  %12 = sext i32 %.0 to i64
  %13 = getelementptr inbounds i8, ptr %3, i64 %12
  %14 = load i8, ptr %13, align 1
  %.not17 = icmp eq i8 %14, 0
  %15 = add i32 %.0, 1
  br i1 %.not17, label %16, label %11, !llvm.loop !48

16:                                               ; preds = %11
  %17 = getelementptr inbounds nuw i8, ptr %3, i64 %10
  store i32 %15, ptr %0, align 4
  br label %18

18:                                               ; preds = %2, %6, %16
  %.015 = phi ptr [ %17, %16 ], [ null, %6 ], [ null, %2 ]
  ret ptr %.015
}